; Function Attrs: nounwind uwtable
define dso_local ptr @PySeqIter_New(ptr noundef %0) local_unnamed_addr #0 {
  %2 = tail call i32 @PySequence_Check(ptr noundef %0) #4
  %.not = icmp eq i32 %2, 0
  br i1 %.not, label %3, label %4

3:                                                ; preds = %1
  tail call void @_PyErr_BadInternalCall(ptr noundef nonnull @.str, i32 noundef 21) #4
  br label %37

4:                                                ; preds = %1
  %5 = tail call ptr @_PyObject_GC_New(ptr noundef nonnull @PySeqIter_Type) #4
  %6 = icmp eq ptr %5, null
  br i1 %6, label %37, label %7

7:                                                ; preds = %4
  %8 = getelementptr inbounds nuw i8, ptr %5, i64 16
  store i64 0, ptr %8, align 8, !tbaa !4
  %9 = load i32, ptr %0, align 8, !tbaa !13
  %10 = icmp slt i32 %9, 0
  br i1 %10, label %_Py_NewRef.exit, label %11

11:                                               ; preds = %7
  %12 = add nuw i32 %9, 1
  store i32 %12, ptr %0, align 8, !tbaa !13
  br label %_Py_NewRef.exit

_Py_NewRef.exit:                                  ; preds = %7, %11
  %13 = getelementptr inbounds nuw i8, ptr %5, i64 24
  store ptr %0, ptr %13, align 8, !tbaa !14
  %14 = getelementptr i8, ptr %5, i64 -16
  %15 = tail call align 8 ptr @llvm.threadlocal.address.p0(ptr align 8 @_Py_tss_tstate)
  %16 = load ptr, ptr %15, align 8, !tbaa !15
  %17 = getelementptr inbounds nuw i8, ptr %16, i64 16
  %18 = load ptr, ptr %17, align 8, !tbaa !17
  %19 = getelementptr inbounds nuw i8, ptr %18, i64 7424
  %20 = getelementptr inbounds nuw i8, ptr %18, i64 7432
  %21 = load i64, ptr %20, align 8, !tbaa !27
  %22 = inttoptr i64 %21 to ptr
  %23 = ptrtoint ptr %14 to i64
  %24 = load i64, ptr %22, align 8, !tbaa !29
  %25 = and i64 %24, 3
  %26 = or i64 %25, %23
  store i64 %26, ptr %22, align 8, !tbaa !29
  %27 = getelementptr i8, ptr %5, i64 -8
  %28 = load i64, ptr %27, align 8, !tbaa !27
  %29 = and i64 %28, 3
  %30 = or i64 %29, %21
  store i64 %30, ptr %27, align 8, !tbaa !27
  %31 = getelementptr inbounds nuw i8, ptr %18, i64 7632
  %32 = load i32, ptr %31, align 8, !tbaa !30
  %33 = xor i32 %32, 1
  %34 = sext i32 %33 to i64
  %35 = ptrtoint ptr %19 to i64
  %36 = or i64 %34, %35
  store i64 %36, ptr %14, align 8, !tbaa !29
  store i64 %23, ptr %20, align 8, !tbaa !27
  br label %37

37:                                               ; preds = %4, %_Py_NewRef.exit, %3
  %.0 = phi ptr [ %5, %_Py_NewRef.exit ], [ null, %3 ], [ null, %4 ]
  ret ptr %.0
}